; Function Attrs: mustprogress uwtable
define hidden noundef i32 @_ZN4cvc58internal7options14stringToTcModeERKNSt7__cxx1112basic_stringIcSt11char_traitsIcESaIcEEE(ptr noundef nonnull align 8 dereferenceable(32) %optarg) local_unnamed_addr #3 personality ptr @__gxx_personality_v0 {
entry:
  %ref.tmp = alloca %"class.std::__cxx11::basic_string", align 8
  %ref.tmp5 = alloca %"class.std::__cxx11::basic_string", align 8
  %ref.tmp6 = alloca %"class.std::__cxx11::basic_string", align 8
  %ref.tmp7 = alloca %"class.std::allocator", align 1
  %call.i = tail call noundef i32 @_ZNKSt7__cxx1112basic_stringIcSt11char_traitsIcESaIcEE7compareEPKc(ptr noundef nonnull align 8 dereferenceable(32) %optarg, ptr noundef nonnull @.str.8) #12
  %cmp.i = icmp eq i32 %call.i, 0
  br i1 %cmp.i, label %if.then, label %if.else

if.then:                                          ; preds = %entry
  ret i32 0

if.else:                                          ; preds = %entry
  %call.i6 = tail call noundef i32 @_ZNKSt7__cxx1112basic_stringIcSt11char_traitsIcESaIcEE7compareEPKc(ptr noundef nonnull align 8 dereferenceable(32) %optarg, ptr noundef nonnull @.str.4) #12
  %cmp.i7 = icmp eq i32 %call.i6, 0
  br i1 %cmp.i7, label %if.then2, label %if.end4

if.then2:                                         ; preds = %if.else
  %call3 = tail call noundef nonnull align 8 dereferenceable(8) ptr @_ZStlsISt11char_traitsIcEERSt13basic_ostreamIcT_ES5_PKc(ptr noundef nonnull align 8 dereferenceable(8) @_ZSt4cerr, ptr noundef nonnull @.str.9)
  tail call void @exit(i32 noundef 1) #11
  unreachable

if.end4:                                          ; preds = %if.else
  %exception = tail call ptr @__cxa_allocate_exception(i64 40) #12
  call void @_ZNSaIcEC1Ev(ptr noundef nonnull align 1 dereferenceable(1) %ref.tmp7) #12
  invoke void @_ZNSt7__cxx1112basic_stringIcSt11char_traitsIcESaIcEEC2IS3_EEPKcRKS3_(ptr noundef nonnull align 8 dereferenceable(32) %ref.tmp6, ptr noundef nonnull @.str.10, ptr noundef nonnull align 1 dereferenceable(1) %ref.tmp7)
          to label %invoke.cont unwind label %ehcleanup15.thread

invoke.cont:                                      ; preds = %if.end4
  %call.i89 = invoke noundef nonnull align 8 dereferenceable(32) ptr @_ZNSt7__cxx1112basic_stringIcSt11char_traitsIcESaIcEE6appendERKS4_(ptr noundef nonnull align 8 dereferenceable(32) %ref.tmp6, ptr noundef nonnull align 8 dereferenceable(32) %optarg)
          to label %invoke.cont9 unwind label %lpad8

invoke.cont9:                                     ; preds = %invoke.cont
  call void @_ZNSt7__cxx1112basic_stringIcSt11char_traitsIcESaIcEEC1EOS4_(ptr noundef nonnull align 8 dereferenceable(32) %ref.tmp5, ptr noundef nonnull align 8 dereferenceable(32) %call.i89) #12
  %call.i1011 = invoke noundef nonnull align 8 dereferenceable(32) ptr @_ZNSt7__cxx1112basic_stringIcSt11char_traitsIcESaIcEE6appendEPKc(ptr noundef nonnull align 8 dereferenceable(32) %ref.tmp5, ptr noundef nonnull @.str.11)
          to label %invoke.cont11 unwind label %lpad10

invoke.cont11:                                    ; preds = %invoke.cont9
  call void @_ZNSt7__cxx1112basic_stringIcSt11char_traitsIcESaIcEEC1EOS4_(ptr noundef nonnull align 8 dereferenceable(32) %ref.tmp, ptr noundef nonnull align 8 dereferenceable(32) %call.i1011) #12
  invoke void @_ZN4cvc58internal15OptionExceptionC2ERKNSt7__cxx1112basic_stringIcSt11char_traitsIcESaIcEEE(ptr noundef nonnull align 8 dereferenceable(40) %exception, ptr noundef nonnull align 8 dereferenceable(32) %ref.tmp)
          to label %invoke.cont13 unwind label %lpad12

invoke.cont13:                                    ; preds = %invoke.cont11
  invoke void @__cxa_throw(ptr nonnull %exception, ptr nonnull @_ZTIN4cvc58internal15OptionExceptionE, ptr nonnull @_ZN4cvc58internal15OptionExceptionD2Ev) #13
          to label %unreachable unwind label %lpad12

ehcleanup15.thread:                               ; preds = %if.end4
  %0 = landingpad { ptr, i32 }
          cleanup
  call void @_ZNSaIcED1Ev(ptr noundef nonnull align 1 dereferenceable(1) %ref.tmp7) #12
  br label %cleanup.action

lpad8:                                            ; preds = %invoke.cont
  %1 = landingpad { ptr, i32 }
          cleanup
  br label %ehcleanup15

lpad10:                                           ; preds = %invoke.cont9
  %2 = landingpad { ptr, i32 }
          cleanup
  br label %ehcleanup

lpad12:                                           ; preds = %invoke.cont13, %invoke.cont11
  %cleanup.isactive.0 = phi i1 [ false, %invoke.cont13 ], [ true, %invoke.cont11 ]
  %3 = landingpad { ptr, i32 }
          cleanup
  call void @_ZNSt7__cxx1112basic_stringIcSt11char_traitsIcESaIcEED1Ev(ptr noundef nonnull align 8 dereferenceable(32) %ref.tmp) #12
  br label %ehcleanup

ehcleanup:                                        ; preds = %lpad12, %lpad10
  %.pn = phi { ptr, i32 } [ %3, %lpad12 ], [ %2, %lpad10 ]
  %cleanup.isactive.1 = phi i1 [ %cleanup.isactive.0, %lpad12 ], [ true, %lpad10 ]
  call void @_ZNSt7__cxx1112basic_stringIcSt11char_traitsIcESaIcEED1Ev(ptr noundef nonnull align 8 dereferenceable(32) %ref.tmp5) #12
  br label %ehcleanup15

ehcleanup15:                                      ; preds = %lpad8, %ehcleanup
  %.pn.pn = phi { ptr, i32 } [ %.pn, %ehcleanup ], [ %1, %lpad8 ]
  %cleanup.isactive.2 = phi i1 [ %cleanup.isactive.1, %ehcleanup ], [ true, %lpad8 ]
  call void @_ZNSt7__cxx1112basic_stringIcSt11char_traitsIcESaIcEED1Ev(ptr noundef nonnull align 8 dereferenceable(32) %ref.tmp6) #12
  call void @_ZNSaIcED1Ev(ptr noundef nonnull align 1 dereferenceable(1) %ref.tmp7) #12
  br i1 %cleanup.isactive.2, label %cleanup.action, label %eh.resume

cleanup.action:                                   ; preds = %ehcleanup15.thread, %ehcleanup15
  %.pn.pn.pn15 = phi { ptr, i32 } [ %0, %ehcleanup15.thread ], [ %.pn.pn, %ehcleanup15 ]
  call void @__cxa_free_exception(ptr %exception) #12
  br label %eh.resume

eh.resume:                                        ; preds = %ehcleanup15, %cleanup.action
  %.pn.pn.pn14 = phi { ptr, i32 } [ %.pn.pn, %ehcleanup15 ], [ %.pn.pn.pn15, %cleanup.action ]
  resume { ptr, i32 } %.pn.pn.pn14

unreachable:                                      ; preds = %invoke.cont13
  unreachable
}